; Function Attrs: nounwind uwtable
define dso_local ptr @xstrfmt(ptr noundef %0, ...) local_unnamed_addr #3 {
  %2 = alloca %struct.strbuf, align 8
  %3 = alloca [1 x %struct.__va_list_tag], align 16
  call void @llvm.lifetime.start.p0(i64 24, ptr nonnull %3) #25
  call void @llvm.va_start.p0(ptr nonnull %3)
  call void @llvm.lifetime.start.p0(i64 24, ptr nonnull %2) #25
  call void @llvm.memcpy.p0.p0.i64(ptr noundef nonnull align 8 dereferenceable(24) %2, ptr noundef nonnull align 8 dereferenceable(24) @__const.strbuf_addftime.munged_fmt, i64 24, i1 false)
  call void @strbuf_vaddf(ptr noundef nonnull %2, ptr noundef %0, ptr noundef nonnull %3)
  %4 = load i64, ptr %2, align 8, !tbaa !15
  %.not.i.i.i = icmp eq i64 %4, 0
  %5 = getelementptr inbounds nuw i8, ptr %2, i64 8
  %6 = load i64, ptr %5, align 8, !tbaa !16
  %7 = icmp eq i64 %6, -1
  br i1 %7, label %8, label %9

8:                                                ; preds = %1
  call void (ptr, ...) @die(ptr noundef nonnull @.str) #24
  unreachable

9:                                                ; preds = %1
  br i1 %.not.i.i.i, label %10, label %12

10:                                               ; preds = %9
  %11 = getelementptr inbounds nuw i8, ptr %2, i64 16
  store ptr null, ptr %11, align 8, !tbaa !12
  br label %12

12:                                               ; preds = %10, %9
  %.not7.i.i = icmp ult i64 %6, %4
  br i1 %.not7.i.i, label %.strbuf_detach.exit_crit_edge.i, label %13

.strbuf_detach.exit_crit_edge.i:                  ; preds = %12
  %.phi.trans.insert.i = getelementptr inbounds nuw i8, ptr %2, i64 16
  %.pre.i = load ptr, ptr %.phi.trans.insert.i, align 8, !tbaa !12
  br label %xstrvfmt.exit

13:                                               ; preds = %12
  %14 = add nuw i64 %6, 1
  %15 = mul i64 %4, 3
  %16 = add i64 %15, 48
  %17 = lshr i64 %16, 1
  %..i.i.i = call i64 @llvm.umax.i64(i64 %17, i64 %14)
  %18 = getelementptr inbounds nuw i8, ptr %2, i64 16
  %19 = load ptr, ptr %18, align 8, !tbaa !12
  %20 = call ptr @xrealloc(ptr noundef %19, i64 noundef %..i.i.i) #25
  br i1 %.not.i.i.i, label %21, label %xstrvfmt.exit

21:                                               ; preds = %13
  store i8 0, ptr %20, align 1, !tbaa !4
  br label %xstrvfmt.exit

xstrvfmt.exit:                                    ; preds = %.strbuf_detach.exit_crit_edge.i, %13, %21
  %22 = phi ptr [ %.pre.i, %.strbuf_detach.exit_crit_edge.i ], [ %20, %13 ], [ %20, %21 ]
  call void @llvm.lifetime.end.p0(i64 24, ptr nonnull %2) #25
  call void @llvm.va_end.p0(ptr nonnull %3)
  call void @llvm.lifetime.end.p0(i64 24, ptr nonnull %3) #25
  ret ptr %22
}